target datalayout = "e-m:e-p270:32:32-p271:32:32-p272:64:64-i64:64-i128:128-f80:128-n8:16:32:64-S128"
target triple = "x86_64-pc-linux-gnu"

%struct._zend_executor_globals = type { %struct._zval_struct, %struct._zval_struct, [32 x ptr], ptr, ptr, %struct._zend_array, %struct._zend_array, ptr, i32, i8, %struct._zval_struct, i32, ptr, ptr, ptr, ptr, ptr, ptr, i64, ptr, ptr, i32, ptr, i32, i64, i32, i32, i32, i8, i8, %struct.zend_atomic_bool_s, %struct.zend_atomic_bool_s, ptr, i64, ptr, ptr, %struct._zend_array, %struct._zend_array, i32, i8, %struct._zval_struct, %struct._zval_struct, %struct._zend_stack, %struct._zend_stack, %struct._zend_stack, ptr, i32, i32, i64, ptr, ptr, ptr, %struct._zend_objects_store, %struct._zend_lazy_objects_store, ptr, ptr, ptr, [3 x %struct._zend_op], ptr, i8, i8, i64, i32, i32, ptr, [16 x %struct._HashTableIterator], ptr, %union._zend_function, %struct._zend_op, %struct._zend_array, i64, %struct.zend_get_gc_buffer, ptr, ptr, ptr, i64, i8, i32, ptr, ptr, i64, %struct._zend_call_stack, i64, i64, %struct._zend_strtod_state, [6 x ptr] }
%struct.zend_atomic_bool_s = type { i8 }
%struct._zval_struct = type { %union._zend_value, %union.anon, %union.anon.2 }
%union._zend_value = type { i64 }
%union.anon = type { i32 }
%union.anon.2 = type { i32 }
%struct._zend_stack = type { i32, i32, i32, ptr }
%struct._zend_objects_store = type { ptr, i32, i32, i32 }
%struct._zend_lazy_objects_store = type { %struct._zend_array }
%struct._HashTableIterator = type { ptr, i32, i32 }
%union._zend_function = type { %struct._zend_op_array }
%struct._zend_op_array = type { i8, [3 x i8], i32, ptr, ptr, ptr, i32, i32, ptr, ptr, ptr, ptr, i32, ptr, i32, i32, i32, ptr, ptr, ptr, ptr, ptr, i32, i32, ptr, ptr, ptr, i32, i32, i32, i32, ptr, ptr, [6 x ptr] }
%struct._zend_op = type { ptr, %union._znode_op, %union._znode_op, %union._znode_op, i32, i32, i8, i8, i8, i8 }
%union._znode_op = type { i32 }
%struct._zend_array = type { %struct._zend_refcounted_h, %union.anon.4, i32, %union.anon.6, i32, i32, i32, i32, i64, ptr }
%struct._zend_refcounted_h = type { i32, %union.anon.3 }
%union.anon.3 = type { i32 }
%union.anon.4 = type { i32 }
%union.anon.6 = type { ptr }
%struct.zend_get_gc_buffer = type { ptr, ptr, ptr }
%struct._zend_call_stack = type { ptr, i64 }
%struct._zend_strtod_state = type { [8 x ptr], ptr, ptr }
%struct._zend_fiber_context = type { ptr, ptr, ptr, ptr, ptr, i32, ptr, [6 x ptr] }
%struct._zend_fiber = type { %struct._zend_object, i8, %struct._zend_fiber_context, ptr, ptr, %struct._zend_fcall_info, %struct._zend_fcall_info_cache, ptr, ptr, ptr, %struct._zval_struct }
%struct._zend_object = type { %struct._zend_refcounted_h, i32, i32, ptr, ptr, ptr, [1 x %struct._zval_struct] }
%struct._zend_fcall_info = type { i64, %struct._zval_struct, ptr, ptr, ptr, i32, ptr }
%struct._zend_fcall_info_cache = type { ptr, ptr, ptr, ptr, ptr }
%struct._zend_execute_data = type { ptr, ptr, ptr, ptr, %struct._zval_struct, ptr, ptr, ptr, ptr }
%struct.anon.0 = type { i8, i8, %union.anon.1 }
%union.anon.1 = type { i16 }
%struct._zend_refcounted = type { %struct._zend_refcounted_h }
%struct._zend_reference = type { %struct._zend_refcounted_h, %struct._zval_struct, %union.zend_property_info_source_list }
%union.zend_property_info_source_list = type { ptr }

@executor_globals = external global %struct._zend_executor_globals, align 8
@zend_ce_fiber_error = internal global ptr null, align 8
@.str.11 = private unnamed_addr constant [29 x i8] c"The fiber threw an exception\00", align 1
@.str.12 = private unnamed_addr constant [36 x i8] c"The fiber exited with a fatal error\00", align 1
@.str.13 = private unnamed_addr constant [31 x i8] c"The fiber has not been started\00", align 1
@.str.14 = private unnamed_addr constant [27 x i8] c"The fiber has not returned\00", align 1
@.str.15 = private unnamed_addr constant [34 x i8] c"Cannot get fiber return value: %s\00", align 1

; Function Attrs: alwaysinline nounwind uwtable
define internal i32 @zend_gc_addref(ptr noundef %0) #6 {
  %2 = alloca ptr, align 8
  store ptr %0, ptr %2, align 8, !tbaa !160
  br label %3

3:                                                ; preds = %1
  br label %4

4:                                                ; preds = %3
  %5 = load ptr, ptr %2, align 8, !tbaa !160
  %6 = getelementptr inbounds nuw %struct._zend_refcounted_h, ptr %5, i32 0, i32 0
  %7 = load i32, ptr %6, align 4, !tbaa !162
  %8 = add i32 %7, 1
  store i32 %8, ptr %6, align 4, !tbaa !162
  ret i32 %8
}

; Function Attrs: alwaysinline nounwind uwtable
define internal i32 @zval_addref_p(ptr noundef %0) #6 {
  %2 = alloca ptr, align 8
  store ptr %0, ptr %2, align 8, !tbaa !94
  %3 = load ptr, ptr %2, align 8, !tbaa !94
  %4 = getelementptr inbounds nuw %struct._zval_struct, ptr %3, i32 0, i32 1
  %5 = getelementptr inbounds nuw %struct.anon.0, ptr %4, i32 0, i32 1
  %6 = load i8, ptr %5, align 1, !tbaa !61
  %7 = zext i8 %6 to i32
  %8 = icmp ne i32 %7, 0
  call void @llvm.assume(i1 %8)
  %9 = load ptr, ptr %2, align 8, !tbaa !94
  %10 = getelementptr inbounds nuw %struct._zval_struct, ptr %9, i32 0, i32 0
  %11 = load ptr, ptr %10, align 8, !tbaa !61
  %12 = getelementptr inbounds nuw %struct._zend_refcounted, ptr %11, i32 0, i32 0
  %13 = call i32 @zend_gc_addref(ptr noundef %12)
  ret i32 %13
}

; Function Attrs: nounwind uwtable
define hidden void @zim_Fiber_getReturn(ptr noundef %0, ptr noundef %1) #0 {
  %3 = alloca ptr, align 8
  %4 = alloca ptr, align 8
  %5 = alloca ptr, align 8
  %6 = alloca ptr, align 8
  %7 = alloca i32, align 4
  %8 = alloca ptr, align 8
  %9 = alloca ptr, align 8
  %10 = alloca ptr, align 8
  %11 = alloca ptr, align 8
  %12 = alloca i32, align 4
  store ptr %0, ptr %3, align 8, !tbaa !127
  store ptr %1, ptr %4, align 8, !tbaa !94
  call void @llvm.lifetime.start.p0(i64 8, ptr %5) #18
  call void @llvm.lifetime.start.p0(i64 8, ptr %6) #18
  br label %13

13:                                               ; preds = %2
  %14 = load ptr, ptr %3, align 8, !tbaa !127
  %15 = getelementptr inbounds nuw %struct._zend_execute_data, ptr %14, i32 0, i32 4
  %16 = getelementptr inbounds nuw %struct._zval_struct, ptr %15, i32 0, i32 2
  %17 = load i32, ptr %16, align 4, !tbaa !61
  %18 = icmp ne i32 %17, 0
  %19 = xor i1 %18, true
  %20 = xor i1 %19, true
  %21 = zext i1 %20 to i32
  %22 = sext i32 %21 to i64
  %23 = call i64 @llvm.expect.i64(i64 %22, i64 0)
  %24 = icmp ne i64 %23, 0
  br i1 %24, label %25, label %26

25:                                               ; preds = %13
  call void @zend_wrong_parameters_none_error()
  store i32 1, ptr %7, align 4
  br label %138

26:                                               ; preds = %13
  br label %27

27:                                               ; preds = %26
  br label %28

28:                                               ; preds = %27
  %29 = load ptr, ptr %3, align 8, !tbaa !127
  %30 = getelementptr inbounds nuw %struct._zend_execute_data, ptr %29, i32 0, i32 4
  %31 = getelementptr inbounds nuw %struct._zval_struct, ptr %30, i32 0, i32 0
  %32 = load ptr, ptr %31, align 8, !tbaa !61
  store ptr %32, ptr %5, align 8, !tbaa !93
  %33 = load ptr, ptr %5, align 8, !tbaa !93
  %34 = getelementptr inbounds nuw %struct._zend_fiber, ptr %33, i32 0, i32 2
  %35 = getelementptr inbounds nuw %struct._zend_fiber_context, ptr %34, i32 0, i32 5
  %36 = load i32, ptr %35, align 8, !tbaa !95
  %37 = icmp eq i32 %36, 3
  br i1 %37, label %38, label %121

38:                                               ; preds = %28
  %39 = load ptr, ptr %5, align 8, !tbaa !93
  %40 = getelementptr inbounds nuw %struct._zend_fiber, ptr %39, i32 0, i32 1
  %41 = load i8, ptr %40, align 8, !tbaa !119
  %42 = zext i8 %41 to i32
  %43 = and i32 %42, 1
  %44 = icmp ne i32 %43, 0
  br i1 %44, label %45, label %46

45:                                               ; preds = %38
  store ptr @.str.11, ptr %6, align 8, !tbaa !130
  br label %120

46:                                               ; preds = %38
  %47 = load ptr, ptr %5, align 8, !tbaa !93
  %48 = getelementptr inbounds nuw %struct._zend_fiber, ptr %47, i32 0, i32 1
  %49 = load i8, ptr %48, align 8, !tbaa !119
  %50 = zext i8 %49 to i32
  %51 = and i32 %50, 2
  %52 = icmp ne i32 %51, 0
  br i1 %52, label %53, label %54

53:                                               ; preds = %46
  store ptr @.str.12, ptr %6, align 8, !tbaa !130
  br label %119

54:                                               ; preds = %46
  br label %55

55:                                               ; preds = %54
  br label %56

56:                                               ; preds = %55
  call void @llvm.lifetime.start.p0(i64 8, ptr %8) #18
  %57 = load ptr, ptr %5, align 8, !tbaa !93
  %58 = getelementptr inbounds nuw %struct._zend_fiber, ptr %57, i32 0, i32 10
  store ptr %58, ptr %8, align 8, !tbaa !94
  %59 = load ptr, ptr %8, align 8, !tbaa !94
  %60 = getelementptr inbounds nuw %struct._zval_struct, ptr %59, i32 0, i32 1
  %61 = load i32, ptr %60, align 8, !tbaa !61
  %62 = and i32 %61, 65280
  %63 = icmp ne i32 %62, 0
  br i1 %63, label %64, label %94

64:                                               ; preds = %56
  %65 = load ptr, ptr %8, align 8, !tbaa !94
  %66 = getelementptr inbounds nuw %struct._zval_struct, ptr %65, i32 0, i32 1
  %67 = load i32, ptr %66, align 8, !tbaa !61
  %68 = and i32 %67, 255
  %69 = icmp eq i32 %68, 10
  %70 = xor i1 %69, true
  %71 = xor i1 %70, true
  %72 = zext i1 %71 to i32
  %73 = sext i32 %72 to i64
  %74 = call i64 @llvm.expect.i64(i64 %73, i64 0)
  %75 = icmp ne i64 %74, 0
  br i1 %75, label %76, label %90

76:                                               ; preds = %64
  %77 = load ptr, ptr %8, align 8, !tbaa !94
  %78 = getelementptr inbounds nuw %struct._zval_struct, ptr %77, i32 0, i32 0
  %79 = load ptr, ptr %78, align 8, !tbaa !61
  %80 = getelementptr inbounds nuw %struct._zend_reference, ptr %79, i32 0, i32 1
  store ptr %80, ptr %8, align 8, !tbaa !94
  %81 = load ptr, ptr %8, align 8, !tbaa !94
  %82 = getelementptr inbounds nuw %struct._zval_struct, ptr %81, i32 0, i32 1
  %83 = load i32, ptr %82, align 8, !tbaa !61
  %84 = and i32 %83, 65280
  %85 = icmp ne i32 %84, 0
  br i1 %85, label %86, label %89

86:                                               ; preds = %76
  %87 = load ptr, ptr %8, align 8, !tbaa !94
  %88 = call i32 @zval_addref_p(ptr noundef %87)
  br label %89

89:                                               ; preds = %86, %76
  br label %93

90:                                               ; preds = %64
  %91 = load ptr, ptr %8, align 8, !tbaa !94
  %92 = call i32 @zval_addref_p(ptr noundef %91)
  br label %93

93:                                               ; preds = %90, %89
  br label %94

94:                                               ; preds = %93, %56
  br label %95

95:                                               ; preds = %94
  call void @llvm.lifetime.start.p0(i64 8, ptr %9) #18
  %96 = load ptr, ptr %4, align 8, !tbaa !94
  store ptr %96, ptr %9, align 8, !tbaa !94
  call void @llvm.lifetime.start.p0(i64 8, ptr %10) #18
  %97 = load ptr, ptr %8, align 8, !tbaa !94
  store ptr %97, ptr %10, align 8, !tbaa !94
  call void @llvm.lifetime.start.p0(i64 8, ptr %11) #18
  %98 = load ptr, ptr %10, align 8, !tbaa !94
  %99 = getelementptr inbounds nuw %struct._zval_struct, ptr %98, i32 0, i32 0
  %100 = load ptr, ptr %99, align 8, !tbaa !61
  store ptr %100, ptr %11, align 8, !tbaa !128
  call void @llvm.lifetime.start.p0(i64 4, ptr %12) #18
  %101 = load ptr, ptr %10, align 8, !tbaa !94
  %102 = getelementptr inbounds nuw %struct._zval_struct, ptr %101, i32 0, i32 1
  %103 = load i32, ptr %102, align 8, !tbaa !61
  store i32 %103, ptr %12, align 4, !tbaa !48
  br label %104

104:                                              ; preds = %95
  %105 = load ptr, ptr %11, align 8, !tbaa !128
  %106 = load ptr, ptr %9, align 8, !tbaa !94
  %107 = getelementptr inbounds nuw %struct._zval_struct, ptr %106, i32 0, i32 0
  store ptr %105, ptr %107, align 8, !tbaa !61
  %108 = load i32, ptr %12, align 4, !tbaa !48
  %109 = load ptr, ptr %9, align 8, !tbaa !94
  %110 = getelementptr inbounds nuw %struct._zval_struct, ptr %109, i32 0, i32 1
  store i32 %108, ptr %110, align 8, !tbaa !61
  br label %111

111:                                              ; preds = %104
  br label %112

112:                                              ; preds = %111
  call void @llvm.lifetime.end.p0(i64 4, ptr %12) #18
  call void @llvm.lifetime.end.p0(i64 8, ptr %11) #18
  call void @llvm.lifetime.end.p0(i64 8, ptr %10) #18
  call void @llvm.lifetime.end.p0(i64 8, ptr %9) #18
  br label %113

113:                                              ; preds = %112
  br label %114

114:                                              ; preds = %113
  call void @llvm.lifetime.end.p0(i64 8, ptr %8) #18
  br label %115

115:                                              ; preds = %114
  br label %116

116:                                              ; preds = %115
  store i32 1, ptr %7, align 4
  br label %138

117:                                              ; No predecessors!
  br label %118

118:                                              ; preds = %117
  br label %119

119:                                              ; preds = %118, %53
  br label %120

120:                                              ; preds = %119, %45
  br label %130

121:                                              ; preds = %28
  %122 = load ptr, ptr %5, align 8, !tbaa !93
  %123 = getelementptr inbounds nuw %struct._zend_fiber, ptr %122, i32 0, i32 2
  %124 = getelementptr inbounds nuw %struct._zend_fiber_context, ptr %123, i32 0, i32 5
  %125 = load i32, ptr %124, align 8, !tbaa !95
  %126 = icmp eq i32 %125, 0
  br i1 %126, label %127, label %128

127:                                              ; preds = %121
  store ptr @.str.13, ptr %6, align 8, !tbaa !130
  br label %129

128:                                              ; preds = %121
  store ptr @.str.14, ptr %6, align 8, !tbaa !130
  br label %129

129:                                              ; preds = %128, %127
  br label %130

130:                                              ; preds = %129, %120
  %131 = load ptr, ptr @zend_ce_fiber_error, align 8, !tbaa !102
  %132 = load ptr, ptr %6, align 8, !tbaa !130
  call void (ptr, ptr, ...) @zend_throw_error(ptr noundef %131, ptr noundef @.str.15, ptr noundef %132)
  br label %133

133:                                              ; preds = %130
  %134 = load ptr, ptr getelementptr inbounds nuw (%struct._zend_executor_globals, ptr @executor_globals, i32 0, i32 54), align 8, !tbaa !118
  %135 = icmp ne ptr %134, null
  call void @llvm.assume(i1 %135)
  store i32 1, ptr %7, align 4
  br label %138

136:                                              ; No predecessors!
  br label %137

137:                                              ; preds = %136
  store i32 0, ptr %7, align 4
  br label %138

138:                                              ; preds = %137, %133, %116, %25
  call void @llvm.lifetime.end.p0(i64 8, ptr %6) #18
  call void @llvm.lifetime.end.p0(i64 8, ptr %5) #18
  %139 = load i32, ptr %7, align 4
  switch i32 %139, label %141 [
    i32 0, label %140
    i32 1, label %140
  ]

140:                                              ; preds = %138, %138
  ret void

141:                                              ; preds = %138
  unreachable
}