; Function Attrs: nounwind uwtable
define hidden void @zim_Fiber_getReturn(ptr noundef readonly captures(none) %0, ptr noundef writeonly captures(none) %1) #7 {
  %3 = getelementptr inbounds nuw i8, ptr %0, i64 44
  %4 = load i32, ptr %3, align 4, !tbaa !56
  %.not = icmp eq i32 %4, 0
  br i1 %.not, label %6, label %5, !prof !73

5:                                                ; preds = %2
  tail call void @zend_wrong_parameters_none_error() #22
  br label %46

6:                                                ; preds = %2
  %7 = getelementptr inbounds nuw i8, ptr %0, i64 32
  %8 = load ptr, ptr %7, align 8, !tbaa !56
  %9 = getelementptr inbounds nuw i8, ptr %8, i64 104
  %10 = load i32, ptr %9, align 8, !tbaa !74
  switch i32 %10, label %41 [
    i32 3, label %11
    i32 0, label %42
  ]

11:                                               ; preds = %6
  %12 = getelementptr inbounds nuw i8, ptr %8, i64 56
  %13 = load i8, ptr %12, align 8, !tbaa !104
  %14 = zext i8 %13 to i32
  %15 = and i32 %14, 1
  %.not23 = icmp eq i32 %15, 0
  br i1 %.not23, label %16, label %42

16:                                               ; preds = %11
  %17 = and i32 %14, 2
  %.not24 = icmp eq i32 %17, 0
  br i1 %.not24, label %18, label %42

18:                                               ; preds = %16
  %19 = getelementptr inbounds nuw i8, ptr %8, i64 312
  %20 = getelementptr inbounds nuw i8, ptr %8, i64 320
  %21 = load i32, ptr %20, align 8
  %22 = and i32 %21, 65280
  %.not25 = icmp eq i32 %22, 0
  br i1 %.not25, label %36, label %23

23:                                               ; preds = %18
  %24 = and i32 %21, 255
  %25 = icmp eq i32 %24, 10
  br i1 %25, label %26, label %.sink.split, !prof !134

26:                                               ; preds = %23
  %27 = load ptr, ptr %19, align 8, !tbaa !56
  %28 = getelementptr inbounds nuw i8, ptr %27, i64 8
  %29 = getelementptr inbounds nuw i8, ptr %27, i64 16
  %30 = load i32, ptr %29, align 8
  %31 = and i32 %30, 65280
  %.not26 = icmp eq i32 %31, 0
  br i1 %.not26, label %36, label %.sink.split

.sink.split:                                      ; preds = %23, %26
  %.sink31 = phi i32 [ %30, %26 ], [ %21, %23 ]
  %.sink.in = phi ptr [ %28, %26 ], [ %19, %23 ]
  %32 = and i32 %.sink31, 65280
  %33 = icmp ne i32 %32, 0
  tail call void @llvm.assume(i1 %33)
  %.sink = load ptr, ptr %.sink.in, align 8, !tbaa !56
  %34 = load i32, ptr %.sink, align 4, !tbaa !105
  %35 = add i32 %34, 1
  store i32 %35, ptr %.sink, align 4, !tbaa !105
  br label %36

36:                                               ; preds = %.sink.split, %18, %26
  %.021 = phi ptr [ %28, %26 ], [ %19, %18 ], [ %.sink.in, %.sink.split ]
  %37 = load ptr, ptr %.021, align 8, !tbaa !56
  %38 = getelementptr inbounds nuw i8, ptr %.021, i64 8
  %39 = load i32, ptr %38, align 8, !tbaa !56
  store ptr %37, ptr %1, align 8, !tbaa !56
  %40 = getelementptr inbounds nuw i8, ptr %1, i64 8
  store i32 %39, ptr %40, align 8, !tbaa !56
  br label %46

41:                                               ; preds = %6
  br label %42

42:                                               ; preds = %6, %16, %11, %41
  %.0 = phi ptr [ @.str.14, %41 ], [ @.str.11, %11 ], [ @.str.12, %16 ], [ @.str.13, %6 ]
  %43 = load ptr, ptr @zend_ce_fiber_error, align 8, !tbaa !81
  tail call void (ptr, ptr, ...) @zend_throw_error(ptr noundef %43, ptr noundef nonnull @.str.15, ptr noundef nonnull %.0) #22
  %44 = load ptr, ptr getelementptr inbounds nuw (i8, ptr @executor_globals, i64 960), align 8, !tbaa !93
  %45 = icmp ne ptr %44, null
  tail call void @llvm.assume(i1 %45)
  br label %46

46:                                               ; preds = %42, %36, %5
  ret void
}